target datalayout = "e-m:e-p270:32:32-p271:32:32-p272:64:64-i64:64-i128:128-f80:128-n8:16:32:64-S128"
target triple = "x86_64-pc-linux-gnu"

%struct.PageHeaderData = type { %struct.PageXLogRecPtr, i16, i16, i16, i16, i16, i16, i32, [0 x %struct.ItemIdData] }
%struct.PageXLogRecPtr = type { i32, i32 }
%struct.ItemIdData = type { i32 }

; Function Attrs: inlinehint nounwind uwtable
define internal void @PageClearHasFreeLinePointers(ptr noundef %0) #3 {
  %2 = alloca ptr, align 8
  store ptr %0, ptr %2, align 8
  %3 = load ptr, ptr %2, align 8
  %4 = getelementptr inbounds nuw %struct.PageHeaderData, ptr %3, i32 0, i32 2
  %5 = load i16, ptr %4, align 2
  %6 = zext i16 %5 to i32
  %7 = and i32 %6, -2
  %8 = trunc i32 %7 to i16
  store i16 %8, ptr %4, align 2
  ret void
}

; Function Attrs: inlinehint nounwind uwtable
define internal void @PageSetHasFreeLinePointers(ptr noundef %0) #3 {
  %2 = alloca ptr, align 8
  store ptr %0, ptr %2, align 8
  %3 = load ptr, ptr %2, align 8
  %4 = getelementptr inbounds nuw %struct.PageHeaderData, ptr %3, i32 0, i32 2
  %5 = load i16, ptr %4, align 2
  %6 = zext i16 %5 to i32
  %7 = or i32 %6, 1
  %8 = trunc i32 %7 to i16
  store i16 %8, ptr %4, align 2
  ret void
}

; Function Attrs: inlinehint nounwind uwtable
define internal ptr @PageGetItemId(ptr noundef %0, i16 noundef zeroext %1) #3 {
  %3 = alloca ptr, align 8
  %4 = alloca i16, align 2
  store ptr %0, ptr %3, align 8
  store i16 %1, ptr %4, align 2
  %5 = load ptr, ptr %3, align 8
  %6 = getelementptr inbounds nuw %struct.PageHeaderData, ptr %5, i32 0, i32 8
  %7 = load i16, ptr %4, align 2
  %8 = zext i16 %7 to i32
  %9 = sub i32 %8, 1
  %10 = sext i32 %9 to i64
  %11 = getelementptr inbounds [0 x %struct.ItemIdData], ptr %6, i64 0, i64 %10
  ret ptr %11
}

; Function Attrs: inlinehint nounwind uwtable
define internal zeroext i16 @PageGetMaxOffsetNumber(ptr noundef %0) #3 {
  %2 = alloca i16, align 2
  %3 = alloca ptr, align 8
  %4 = alloca ptr, align 8
  %5 = alloca i32, align 4
  store ptr %0, ptr %3, align 8
  call void @llvm.lifetime.start.p0(i64 8, ptr %4) #8
  %6 = load ptr, ptr %3, align 8
  store ptr %6, ptr %4, align 8
  %7 = load ptr, ptr %4, align 8
  %8 = getelementptr inbounds nuw %struct.PageHeaderData, ptr %7, i32 0, i32 3
  %9 = load i16, ptr %8, align 4
  %10 = zext i16 %9 to i64
  %11 = icmp ule i64 %10, 24
  br i1 %11, label %12, label %13

12:                                               ; preds = %1
  store i16 0, ptr %2, align 2
  store i32 1, ptr %5, align 4
  br label %21

13:                                               ; preds = %1
  %14 = load ptr, ptr %4, align 8
  %15 = getelementptr inbounds nuw %struct.PageHeaderData, ptr %14, i32 0, i32 3
  %16 = load i16, ptr %15, align 4
  %17 = zext i16 %16 to i64
  %18 = sub i64 %17, 24
  %19 = udiv i64 %18, 4
  %20 = trunc i64 %19 to i16
  store i16 %20, ptr %2, align 2
  store i32 1, ptr %5, align 4
  br label %21

21:                                               ; preds = %13, %12
  call void @llvm.lifetime.end.p0(i64 8, ptr %4) #8
  %22 = load i16, ptr %2, align 2
  ret i16 %22
}

; Function Attrs: nounwind uwtable
define dso_local void @PageTruncateLinePointerArray(ptr noundef %0) #0 {
  %2 = alloca ptr, align 8
  %3 = alloca ptr, align 8
  %4 = alloca i8, align 1
  %5 = alloca i8, align 1
  %6 = alloca i32, align 4
  %7 = alloca i32, align 4
  %8 = alloca i32, align 4
  %9 = alloca ptr, align 8
  store ptr %0, ptr %2, align 8
  call void @llvm.lifetime.start.p0(i64 8, ptr %3) #8
  %10 = load ptr, ptr %2, align 8
  store ptr %10, ptr %3, align 8
  call void @llvm.lifetime.start.p0(i64 1, ptr %4) #8
  store i8 0, ptr %4, align 1
  call void @llvm.lifetime.start.p0(i64 1, ptr %5) #8
  store i8 0, ptr %5, align 1
  call void @llvm.lifetime.start.p0(i64 4, ptr %6) #8
  store i32 0, ptr %6, align 4
  call void @llvm.lifetime.start.p0(i64 4, ptr %7) #8
  %11 = load ptr, ptr %2, align 8
  %12 = call zeroext i16 @PageGetMaxOffsetNumber(ptr noundef %11)
  %13 = zext i16 %12 to i32
  store i32 %13, ptr %7, align 4
  br label %14

14:                                               ; preds = %51, %1
  %15 = load i32, ptr %7, align 4
  %16 = icmp sge i32 %15, 1
  br i1 %16, label %18, label %17

17:                                               ; preds = %14
  store i32 2, ptr %8, align 4
  br label %54

18:                                               ; preds = %14
  call void @llvm.lifetime.start.p0(i64 8, ptr %9) #8
  %19 = load ptr, ptr %2, align 8
  %20 = load i32, ptr %7, align 4
  %21 = trunc i32 %20 to i16
  %22 = call ptr @PageGetItemId(ptr noundef %19, i16 noundef zeroext %21)
  store ptr %22, ptr %9, align 8
  %23 = load i8, ptr %4, align 1, !range !6, !noundef !7
  %24 = trunc i8 %23 to i1
  br i1 %24, label %39, label %25

25:                                               ; preds = %18
  %26 = load i32, ptr %7, align 4
  %27 = icmp sgt i32 %26, 1
  br i1 %27, label %28, label %39

28:                                               ; preds = %25
  %29 = load ptr, ptr %9, align 8
  %30 = load i32, ptr %29, align 4
  %31 = lshr i32 %30, 15
  %32 = and i32 %31, 3
  %33 = icmp ne i32 %32, 0
  br i1 %33, label %37, label %34

34:                                               ; preds = %28
  %35 = load i32, ptr %6, align 4
  %36 = add i32 %35, 1
  store i32 %36, ptr %6, align 4
  br label %38

37:                                               ; preds = %28
  store i8 1, ptr %4, align 1
  br label %38

38:                                               ; preds = %37, %34
  br label %47

39:                                               ; preds = %25, %18
  %40 = load ptr, ptr %9, align 8
  %41 = load i32, ptr %40, align 4
  %42 = lshr i32 %41, 15
  %43 = and i32 %42, 3
  %44 = icmp ne i32 %43, 0
  br i1 %44, label %46, label %45

45:                                               ; preds = %39
  store i8 1, ptr %5, align 1
  store i32 2, ptr %8, align 4
  br label %48

46:                                               ; preds = %39
  br label %47

47:                                               ; preds = %46, %38
  store i32 0, ptr %8, align 4
  br label %48

48:                                               ; preds = %47, %45
  call void @llvm.lifetime.end.p0(i64 8, ptr %9) #8
  %49 = load i32, ptr %8, align 4
  switch i32 %49, label %54 [
    i32 0, label %50
  ]

50:                                               ; preds = %48
  br label %51

51:                                               ; preds = %50
  %52 = load i32, ptr %7, align 4
  %53 = add i32 %52, -1
  store i32 %53, ptr %7, align 4
  br label %14, !llvm.loop !23

54:                                               ; preds = %48, %17
  call void @llvm.lifetime.end.p0(i64 4, ptr %7) #8
  br label %55

55:                                               ; preds = %54
  %56 = load i32, ptr %6, align 4
  %57 = icmp sgt i32 %56, 0
  br i1 %57, label %58, label %68

58:                                               ; preds = %55
  %59 = load i32, ptr %6, align 4
  %60 = sext i32 %59 to i64
  %61 = mul i64 4, %60
  %62 = load ptr, ptr %3, align 8
  %63 = getelementptr inbounds nuw %struct.PageHeaderData, ptr %62, i32 0, i32 3
  %64 = load i16, ptr %63, align 4
  %65 = zext i16 %64 to i64
  %66 = sub i64 %65, %61
  %67 = trunc i64 %66 to i16
  store i16 %67, ptr %63, align 4
  br label %69

68:                                               ; preds = %55
  br label %69

69:                                               ; preds = %68, %58
  %70 = load i8, ptr %5, align 1, !range !6, !noundef !7
  %71 = trunc i8 %70 to i1
  br i1 %71, label %72, label %74

72:                                               ; preds = %69
  %73 = load ptr, ptr %2, align 8
  call void @PageSetHasFreeLinePointers(ptr noundef %73)
  br label %76

74:                                               ; preds = %69
  %75 = load ptr, ptr %2, align 8
  call void @PageClearHasFreeLinePointers(ptr noundef %75)
  br label %76

76:                                               ; preds = %74, %72
  call void @llvm.lifetime.end.p0(i64 4, ptr %6) #8
  call void @llvm.lifetime.end.p0(i64 1, ptr %5) #8
  call void @llvm.lifetime.end.p0(i64 1, ptr %4) #8
  call void @llvm.lifetime.end.p0(i64 8, ptr %3) #8
  ret void
}