; Function Attrs: nofree norecurse nosync nounwind memory(argmem: readwrite) uwtable
define dso_local void @PageTruncateLinePointerArray(ptr noundef captures(none) %0) local_unnamed_addr #7 {
  %2 = getelementptr i8, ptr %0, i64 12
  %.val = load i16, ptr %2, align 4
  %3 = icmp ult i16 %.val, 25
  %4 = zext i16 %.val to i32
  %5 = add nuw nsw i32 %4, 262120
  %6 = lshr i32 %5, 2
  %7 = and i32 %6, 65535
  %.not383948 = icmp eq i32 %7, 0
  %.not3839 = select i1 %3, i1 true, i1 %.not383948
  br i1 %.not3839, label %.thread52, label %.lr.ph

.lr.ph:                                           ; preds = %1
  %8 = getelementptr inbounds nuw i8, ptr %0, i64 24
  br label %9

9:                                                ; preds = %.lr.ph, %19
  %.043 = phi i1 [ false, %.lr.ph ], [ %.237, %19 ]
  %.01942 = phi i32 [ %7, %.lr.ph ], [ %20, %19 ]
  %.02041 = phi i32 [ 0, %.lr.ph ], [ %.336, %19 ]
  %10 = and i32 %.01942, 65535
  %11 = zext nneg i32 %10 to i64
  %12 = add nsw i64 %11, -1
  %13 = getelementptr inbounds [0 x %struct.ItemIdData], ptr %8, i64 0, i64 %12
  %14 = icmp eq i32 %.01942, 1
  %or.cond.not = or i1 %14, %.043
  %15 = load i32, ptr %13, align 4
  %16 = and i32 %15, 98304
  %.not.not = icmp eq i32 %16, 0
  br i1 %or.cond.not, label %18, label %.thread

.thread:                                          ; preds = %9
  %17 = zext i1 %.not.not to i32
  %spec.select = add i32 %.02041, %17
  %not..not27 = xor i1 %.not.not, true
  br label %19

18:                                               ; preds = %9
  br i1 %.not.not, label %._crit_edge, label %19

19:                                               ; preds = %.thread, %18
  %.237 = phi i1 [ %not..not27, %.thread ], [ %.043, %18 ]
  %.336 = phi i32 [ %spec.select, %.thread ], [ %.02041, %18 ]
  %20 = add nsw i32 %.01942, -1
  %.not38 = icmp eq i32 %20, 0
  br i1 %.not38, label %._crit_edge, label %9, !llvm.loop !19

._crit_edge:                                      ; preds = %18, %19
  %.020.lcssa = phi i32 [ %.02041, %18 ], [ %.336, %19 ]
  %.124 = phi i1 [ true, %18 ], [ false, %19 ]
  %21 = icmp sgt i32 %.020.lcssa, 0
  br i1 %21, label %22, label %26

22:                                               ; preds = %._crit_edge
  %23 = trunc i32 %.020.lcssa to i16
  %24 = shl i16 %23, 2
  %25 = sub i16 %.val, %24
  store i16 %25, ptr %2, align 4
  br i1 %.124, label %27, label %.thread52

26:                                               ; preds = %._crit_edge
  br i1 %.124, label %27, label %.thread52

27:                                               ; preds = %22, %26
  %28 = getelementptr inbounds nuw i8, ptr %0, i64 10
  %29 = load i16, ptr %28, align 2
  %30 = or i16 %29, 1
  store i16 %30, ptr %28, align 2
  br label %34

.thread52:                                        ; preds = %1, %22, %26
  %31 = getelementptr inbounds nuw i8, ptr %0, i64 10
  %32 = load i16, ptr %31, align 2
  %33 = and i16 %32, -2
  store i16 %33, ptr %31, align 2
  br label %34

34:                                               ; preds = %.thread52, %27
  ret void
}